; ModuleID = '35/1022.c'
source_filename = "35/1022.c"
target datalayout = "e-m:e-p270:32:32-p271:32:32-p272:64:64-i64:64-f80:128-n8:16:32:64-S128"
target triple = "x86_64-pc-linux-gnu"

@.str = private unnamed_addr constant [6 x i8] c"%d,%d\00", align 1
@.str.1 = private unnamed_addr constant [3 x i8] c"%d\00", align 1
@.str.2 = private unnamed_addr constant [7 x i8] c"%d+%d\0A\00", align 1
@.str.3 = private unnamed_addr constant [4 x i8] c"No\0A\00", align 1

; Function Attrs: noinline nounwind uwtable
define dso_local i32 @main() #0 {
  %1 = alloca i32, align 4
  %2 = alloca i32, align 4
  %3 = alloca i32, align 4
  %4 = alloca i32, align 4
  %5 = alloca i32, align 4
  %6 = alloca i32, align 4
  %7 = alloca i32, align 4
  %8 = alloca i32, align 4
  %9 = alloca i32, align 4
  %10 = alloca i8*, align 8
  %11 = alloca i64, align 8
  %12 = alloca i64, align 8
  %13 = alloca i64, align 8
  %14 = alloca i64, align 8
  store i32 0, i32* %1, align 4
  store i32 0, i32* %7, align 4
  store i32 0, i32* %8, align 4
  store i32 0, i32* %9, align 4
  %15 = call i32 (i8*, ...) @__isoc99_scanf(i8* getelementptr inbounds ([6 x i8], [6 x i8]* @.str, i64 0, i64 0), i32* %5, i32* %6)
  %16 = load i32, i32* %5, align 4
  %17 = zext i32 %16 to i64
  %18 = load i32, i32* %6, align 4
  %19 = zext i32 %18 to i64
  %20 = call i8* @llvm.stacksave()
  store i8* %20, i8** %10, align 8
  %21 = mul nuw i64 %17, %19
  %22 = alloca i32, i64 %21, align 16
  store i64 %17, i64* %11, align 8
  store i64 %19, i64* %12, align 8
  %23 = load i32, i32* %5, align 4
  %24 = zext i32 %23 to i64
  %25 = alloca i32, i64 %24, align 16
  store i64 %24, i64* %13, align 8
  %26 = load i32, i32* %6, align 4
  %27 = zext i32 %26 to i64
  %28 = alloca i32, i64 %27, align 16
  store i64 %27, i64* %14, align 8
  store i32 0, i32* %2, align 4
  br label %29

29:                                               ; preds = %51, %0
  %30 = load i32, i32* %2, align 4
  %31 = load i32, i32* %5, align 4
  %32 = icmp slt i32 %30, %31
  br i1 %32, label %33, label %54

33:                                               ; preds = %29
  store i32 0, i32* %3, align 4
  br label %34

34:                                               ; preds = %47, %33
  %35 = load i32, i32* %3, align 4
  %36 = load i32, i32* %6, align 4
  %37 = icmp slt i32 %35, %36
  br i1 %37, label %38, label %50

38:                                               ; preds = %34
  %39 = load i32, i32* %2, align 4
  %40 = sext i32 %39 to i64
  %41 = mul nsw i64 %40, %19
  %42 = getelementptr inbounds i32, i32* %22, i64 %41
  %43 = load i32, i32* %3, align 4
  %44 = sext i32 %43 to i64
  %45 = getelementptr inbounds i32, i32* %42, i64 %44
  %46 = call i32 (i8*, ...) @__isoc99_scanf(i8* getelementptr inbounds ([3 x i8], [3 x i8]* @.str.1, i64 0, i64 0), i32* %45)
  br label %47

47:                                               ; preds = %38
  %48 = load i32, i32* %3, align 4
  %49 = add nsw i32 %48, 1
  store i32 %49, i32* %3, align 4
  br label %34

50:                                               ; preds = %34
  br label %51

51:                                               ; preds = %50
  %52 = load i32, i32* %2, align 4
  %53 = add nsw i32 %52, 1
  store i32 %53, i32* %2, align 4
  br label %29

54:                                               ; preds = %29
  store i32 0, i32* %2, align 4
  br label %55

55:                                               ; preds = %167, %54
  %56 = load i32, i32* %2, align 4
  %57 = load i32, i32* %5, align 4
  %58 = icmp slt i32 %56, %57
  br i1 %58, label %59, label %170

59:                                               ; preds = %55
  store i32 0, i32* %3, align 4
  br label %60

60:                                               ; preds = %76, %59
  %61 = load i32, i32* %3, align 4
  %62 = load i32, i32* %6, align 4
  %63 = icmp slt i32 %61, %62
  br i1 %63, label %64, label %79

64:                                               ; preds = %60
  %65 = load i32, i32* %2, align 4
  %66 = sext i32 %65 to i64
  %67 = mul nsw i64 %66, %19
  %68 = getelementptr inbounds i32, i32* %22, i64 %67
  %69 = load i32, i32* %3, align 4
  %70 = sext i32 %69 to i64
  %71 = getelementptr inbounds i32, i32* %68, i64 %70
  %72 = load i32, i32* %71, align 4
  %73 = load i32, i32* %3, align 4
  %74 = sext i32 %73 to i64
  %75 = getelementptr inbounds i32, i32* %28, i64 %74
  store i32 %72, i32* %75, align 4
  br label %76

76:                                               ; preds = %64
  %77 = load i32, i32* %3, align 4
  %78 = add nsw i32 %77, 1
  store i32 %78, i32* %3, align 4
  br label %60

79:                                               ; preds = %60
  store i32 0, i32* %3, align 4
  br label %80

80:                                               ; preds = %163, %79
  %81 = load i32, i32* %3, align 4
  %82 = load i32, i32* %6, align 4
  %83 = icmp slt i32 %81, %82
  br i1 %83, label %84, label %166

84:                                               ; preds = %80
  store i32 0, i32* %4, align 4
  br label %85

85:                                               ; preds = %101, %84
  %86 = load i32, i32* %4, align 4
  %87 = load i32, i32* %5, align 4
  %88 = icmp slt i32 %86, %87
  br i1 %88, label %89, label %104

89:                                               ; preds = %85
  %90 = load i32, i32* %4, align 4
  %91 = sext i32 %90 to i64
  %92 = mul nsw i64 %91, %19
  %93 = getelementptr inbounds i32, i32* %22, i64 %92
  %94 = load i32, i32* %3, align 4
  %95 = sext i32 %94 to i64
  %96 = getelementptr inbounds i32, i32* %93, i64 %95
  %97 = load i32, i32* %96, align 4
  %98 = load i32, i32* %4, align 4
  %99 = sext i32 %98 to i64
  %100 = getelementptr inbounds i32, i32* %25, i64 %99
  store i32 %97, i32* %100, align 4
  br label %101

101:                                              ; preds = %89
  %102 = load i32, i32* %4, align 4
  %103 = add nsw i32 %102, 1
  store i32 %103, i32* %4, align 4
  br label %85

104:                                              ; preds = %85
  store i32 0, i32* %4, align 4
  br label %105

105:                                              ; preds = %125, %104
  %106 = load i32, i32* %4, align 4
  %107 = load i32, i32* %5, align 4
  %108 = icmp slt i32 %106, %107
  br i1 %108, label %109, label %128

109:                                              ; preds = %105
  %110 = load i32, i32* %4, align 4
  %111 = sext i32 %110 to i64
  %112 = getelementptr inbounds i32, i32* %25, i64 %111
  %113 = load i32, i32* %112, align 4
  %114 = load i32, i32* %2, align 4
  %115 = sext i32 %114 to i64
  %116 = mul nsw i64 %115, %19
  %117 = getelementptr inbounds i32, i32* %22, i64 %116
  %118 = load i32, i32* %3, align 4
  %119 = sext i32 %118 to i64
  %120 = getelementptr inbounds i32, i32* %117, i64 %119
  %121 = load i32, i32* %120, align 4
  %122 = icmp slt i32 %113, %121
  br i1 %122, label %123, label %124

123:                                              ; preds = %109
  store i32 1, i32* %7, align 4
  br label %128

124:                                              ; preds = %109
  br label %125

125:                                              ; preds = %124
  %126 = load i32, i32* %4, align 4
  %127 = add nsw i32 %126, 1
  store i32 %127, i32* %4, align 4
  br label %105

128:                                              ; preds = %123, %105
  store i32 0, i32* %4, align 4
  br label %129

129:                                              ; preds = %149, %128
  %130 = load i32, i32* %4, align 4
  %131 = load i32, i32* %6, align 4
  %132 = icmp slt i32 %130, %131
  br i1 %132, label %133, label %152

133:                                              ; preds = %129
  %134 = load i32, i32* %4, align 4
  %135 = sext i32 %134 to i64
  %136 = getelementptr inbounds i32, i32* %28, i64 %135
  %137 = load i32, i32* %136, align 4
  %138 = load i32, i32* %2, align 4
  %139 = sext i32 %138 to i64
  %140 = mul nsw i64 %139, %19
  %141 = getelementptr inbounds i32, i32* %22, i64 %140
  %142 = load i32, i32* %3, align 4
  %143 = sext i32 %142 to i64
  %144 = getelementptr inbounds i32, i32* %141, i64 %143
  %145 = load i32, i32* %144, align 4
  %146 = icmp sgt i32 %137, %145
  br i1 %146, label %147, label %148

147:                                              ; preds = %133
  store i32 1, i32* %8, align 4
  br label %152

148:                                              ; preds = %133
  br label %149

149:                                              ; preds = %148
  %150 = load i32, i32* %4, align 4
  %151 = add nsw i32 %150, 1
  store i32 %151, i32* %4, align 4
  br label %129

152:                                              ; preds = %147, %129
  %153 = load i32, i32* %8, align 4
  %154 = icmp eq i32 %153, 0
  br i1 %154, label %155, label %162

155:                                              ; preds = %152
  %156 = load i32, i32* %7, align 4
  %157 = icmp eq i32 %156, 0
  br i1 %157, label %158, label %162

158:                                              ; preds = %155
  store i32 1, i32* %9, align 4
  %159 = load i32, i32* %2, align 4
  %160 = load i32, i32* %3, align 4
  %161 = call i32 (i8*, ...) @printf(i8* getelementptr inbounds ([7 x i8], [7 x i8]* @.str.2, i64 0, i64 0), i32 %159, i32 %160)
  br label %162

162:                                              ; preds = %158, %155, %152
  store i32 0, i32* %8, align 4
  store i32 0, i32* %7, align 4
  br label %163

163:                                              ; preds = %162
  %164 = load i32, i32* %3, align 4
  %165 = add nsw i32 %164, 1
  store i32 %165, i32* %3, align 4
  br label %80

166:                                              ; preds = %80
  br label %167

167:                                              ; preds = %166
  %168 = load i32, i32* %2, align 4
  %169 = add nsw i32 %168, 1
  store i32 %169, i32* %2, align 4
  br label %55

170:                                              ; preds = %55
  %171 = load i32, i32* %9, align 4
  %172 = icmp eq i32 %171, 0
  br i1 %172, label %173, label %175

173:                                              ; preds = %170
  %174 = call i32 (i8*, ...) @printf(i8* getelementptr inbounds ([4 x i8], [4 x i8]* @.str.3, i64 0, i64 0))
  br label %175

175:                                              ; preds = %173, %170
  store i32 0, i32* %1, align 4
  %176 = load i8*, i8** %10, align 8
  call void @llvm.stackrestore(i8* %176)
  %177 = load i32, i32* %1, align 4
  ret i32 %177
}

declare dso_local i32 @__isoc99_scanf(i8*, ...) #1

; Function Attrs: nounwind
declare i8* @llvm.stacksave() #2

declare dso_local i32 @printf(i8*, ...) #1

; Function Attrs: nounwind
declare void @llvm.stackrestore(i8*) #2


!llvm.module.flags = !{!0}
!llvm.ident = !{!1}

!0 = !{i32 1, !"wchar_size", i32 4}
!1 = !{!"clang version 10.0.0-4ubuntu1 "}
